target datalayout = "e-m:e-p270:32:32-p271:32:32-p272:64:64-i64:64-i128:128-f80:128-n8:16:32:64-S128"
target triple = "x86_64-pc-linux-gnu"

%class.DependencyContext = type { ptr, ptr }

; Function Attrs: mustprogress nounwind uwtable
define hidden void @_ZN13MethodHandles21add_dependent_nmethodEP7oopDescP7nmethod(ptr noundef %0, ptr noundef %1) #1 align 2 {
  %3 = alloca ptr, align 8
  %4 = alloca ptr, align 8
  %5 = alloca ptr, align 8
  %6 = alloca %class.DependencyContext, align 8
  store ptr %0, ptr %3, align 8
  store ptr %1, ptr %4, align 8
  %7 = load ptr, ptr %3, align 8
  %8 = call noundef ptr @_ZN25java_lang_invoke_CallSite20context_no_keepaliveEP7oopDesc(ptr noundef %7)
  store ptr %8, ptr %5, align 8
  %9 = load ptr, ptr %5, align 8
  %10 = call { ptr, ptr } @_ZN52java_lang_invoke_MethodHandleNatives_CallSiteContext14vmdependenciesEP7oopDesc(ptr noundef %9)
  %11 = getelementptr inbounds { ptr, ptr }, ptr %6, i32 0, i32 0
  %12 = extractvalue { ptr, ptr } %10, 0
  store ptr %12, ptr %11, align 8
  %13 = getelementptr inbounds { ptr, ptr }, ptr %6, i32 0, i32 1
  %14 = extractvalue { ptr, ptr } %10, 1
  store ptr %14, ptr %13, align 8
  %15 = load ptr, ptr %4, align 8
  call void @_ZN17DependencyContext21add_dependent_nmethodEP7nmethod(ptr noundef nonnull align 8 dereferenceable(16) %6, ptr noundef %15)
  ret void
}