; Function Attrs: mustprogress nounwind uwtable
define hidden void @_ZN13MethodHandles21add_dependent_nmethodEP7oopDescP7nmethod(ptr noundef %0, ptr noundef %1) local_unnamed_addr #0 align 2 {
  %3 = alloca %class.DependencyContext, align 8
  %4 = tail call noundef ptr @_ZN25java_lang_invoke_CallSite20context_no_keepaliveEP7oopDesc(ptr noundef %0) #13
  %5 = tail call { ptr, ptr } @_ZN52java_lang_invoke_MethodHandleNatives_CallSiteContext14vmdependenciesEP7oopDesc(ptr noundef %4) #13
  %6 = extractvalue { ptr, ptr } %5, 0
  store ptr %6, ptr %3, align 8
  %7 = getelementptr inbounds i8, ptr %3, i64 8
  %8 = extractvalue { ptr, ptr } %5, 1
  store ptr %8, ptr %7, align 8
  call void @_ZN17DependencyContext21add_dependent_nmethodEP7nmethod(ptr noundef nonnull align 8 dereferenceable(16) %3, ptr noundef %1) #13
  ret void
}